target datalayout = "e-m:e-p270:32:32-p271:32:32-p272:64:64-i64:64-i128:128-f80:128-n8:16:32:64-S128"
target triple = "x86_64-pc-linux-gnu"

%struct.Aig_Obj_t_ = type { %union.anon, ptr, ptr, i64, i32, i32, %union.anon.0 }
%union.anon = type { ptr }
%union.anon.0 = type { ptr }

; Function Attrs: nounwind uwtable
define i32 @Saig_StrSimIsZero(ptr noundef %0) #0 {
  %2 = alloca i32, align 4
  %3 = alloca ptr, align 8
  %4 = alloca ptr, align 8
  %5 = alloca i32, align 4
  %6 = alloca i32, align 4
  store ptr %0, ptr %3, align 8, !tbaa !3
  call void @llvm.lifetime.start.p0(i64 8, ptr %4) #10
  %7 = load ptr, ptr %3, align 8, !tbaa !3
  %8 = getelementptr inbounds nuw %struct.Aig_Obj_t_, ptr %7, i32 0, i32 6
  %9 = load ptr, ptr %8, align 8, !tbaa !10
  store ptr %9, ptr %4, align 8, !tbaa !11
  call void @llvm.lifetime.start.p0(i64 4, ptr %5) #10
  store i32 0, ptr %5, align 4, !tbaa !8
  br label %10

10:                                               ; preds = %22, %1
  %11 = load i32, ptr %5, align 4, !tbaa !8
  %12 = icmp slt i32 %11, 16
  br i1 %12, label %13, label %25

13:                                               ; preds = %10
  %14 = load ptr, ptr %4, align 8, !tbaa !11
  %15 = load i32, ptr %5, align 4, !tbaa !8
  %16 = sext i32 %15 to i64
  %17 = getelementptr inbounds i32, ptr %14, i64 %16
  %18 = load i32, ptr %17, align 4, !tbaa !8
  %19 = icmp ne i32 %18, 0
  br i1 %19, label %20, label %21

20:                                               ; preds = %13
  store i32 0, ptr %2, align 4
  store i32 1, ptr %6, align 4
  br label %26

21:                                               ; preds = %13
  br label %22

22:                                               ; preds = %21
  %23 = load i32, ptr %5, align 4, !tbaa !8
  %24 = add nsw i32 %23, 1
  store i32 %24, ptr %5, align 4, !tbaa !8
  br label %10, !llvm.loop !16

25:                                               ; preds = %10
  store i32 1, ptr %2, align 4
  store i32 1, ptr %6, align 4
  br label %26

26:                                               ; preds = %25, %20
  call void @llvm.lifetime.end.p0(i64 4, ptr %5) #10
  call void @llvm.lifetime.end.p0(i64 8, ptr %4) #10
  %27 = load i32, ptr %2, align 4
  ret i32 %27
}